target datalayout = "e-m:e-p270:32:32-p271:32:32-p272:64:64-i64:64-i128:128-f80:128-n8:16:32:64-S128"
target triple = "x86_64-pc-linux-gnu"

%class.RangeCoder = type { i32, i32, i32, %"struct.RangeCoder::SUBRANGE", ptr }
%"struct.RangeCoder::SUBRANGE" = type { i32, i32, i32 }
%class.SubAllocator = type { i64, [38 x i8], [128 x i8], i8, ptr, ptr, ptr, [38 x %"struct.SubAllocator::RAR_NODE"], ptr, ptr, ptr, ptr }
%"struct.SubAllocator::RAR_NODE" = type { ptr }
%class.ModelPPM = type <{ i8, [25 x [16 x %struct.RARPPM_SEE2_CONTEXT]], %struct.RARPPM_SEE2_CONTEXT, [3 x i8], ptr, ptr, ptr, ptr, i32, i32, i32, i32, i32, i32, [256 x i8], [256 x i8], [256 x i8], [256 x i8], i8, i8, i8, i8, [128 x [64 x i16]], [4 x i8], %class.RangeCoder, %class.SubAllocator }>
%struct.RARPPM_SEE2_CONTEXT = type { i16, i8, i8 }
%class.Unpack = type { ptr, %class.BitInput, %class.Array, %class.Array, %class.Array.0, [4 x i32], i32, i32, i32, i64, i64, i32, i32, %struct.UnpackBlockHeader, %struct.UnpackBlockTables, i64, ptr, %class.FragmentedWindow, i8, i64, i8, i8, i8, i64, i8, [256 x i16], [256 x i16], [256 x i16], [256 x i16], [256 x i8], [256 x i8], [256 x i8], i32, i32, i32, i32, i32, i32, i32, i32, i32, i32, i32, i32, i32, i32, [4 x %struct.DecodeTable], [1028 x i8], i8, i32, i32, i32, [4 x %struct.AudioVariables], i32, i32, %class.ModelPPM, i32, [404 x i8], i32, i8, i8, i8, %class.RarVM, %class.BitInput, %class.Array.1, %class.Array.1, %class.Array.2, i32, i64, i64 }
%class.Array = type { ptr, i64, i64, i64 }
%class.Array.0 = type { ptr, i64, i64, i64 }
%struct.UnpackBlockHeader = type { i32, i32, i32, i32, i8, i8 }
%struct.UnpackBlockTables = type { %struct.DecodeTable, %struct.DecodeTable, %struct.DecodeTable, %struct.DecodeTable, %struct.DecodeTable }
%struct.DecodeTable = type { i32, [16 x i32], [16 x i32], i32, [1024 x i8], [1024 x i16], [306 x i16] }
%class.FragmentedWindow = type { [32 x ptr], [32 x i64] }
%struct.AudioVariables = type { i32, i32, i32, i32, i32, i32, i32, i32, i32, i32, [11 x i32], i32, i32 }
%class.RarVM = type { ptr, [8 x i32] }
%class.BitInput = type { i32, i32, i8, ptr }
%class.Array.1 = type { ptr, i64, i64, i64 }
%class.Array.2 = type { ptr, i64, i64, i64 }

; Function Attrs: mustprogress uwtable
define noundef zeroext i1 @_ZN6Unpack12UnpReadBuf30Ev(ptr noundef nonnull align 8 dereferenceable(59688) %0) #0 align 2 {
  %2 = alloca i1, align 1
  %3 = alloca ptr, align 8
  %4 = alloca i32, align 4
  %5 = alloca i32, align 4
  store ptr %0, ptr %3, align 8
  %6 = load ptr, ptr %3, align 8
  %7 = getelementptr inbounds %class.Unpack, ptr %6, i32 0, i32 11
  %8 = load i32, ptr %7, align 8
  %9 = getelementptr inbounds %class.Unpack, ptr %6, i32 0, i32 1
  %10 = getelementptr inbounds %class.BitInput, ptr %9, i32 0, i32 0
  %11 = load i32, ptr %10, align 8
  %12 = sub nsw i32 %8, %11
  store i32 %12, ptr %4, align 4
  %13 = load i32, ptr %4, align 4
  %14 = icmp slt i32 %13, 0
  br i1 %14, label %15, label %16

15:                                               ; preds = %1
  store i1 false, ptr %2, align 1
  br label %73

16:                                               ; preds = %1
  %17 = getelementptr inbounds %class.Unpack, ptr %6, i32 0, i32 1
  %18 = getelementptr inbounds %class.BitInput, ptr %17, i32 0, i32 0
  %19 = load i32, ptr %18, align 8
  %20 = icmp sgt i32 %19, 16384
  br i1 %20, label %21, label %43

21:                                               ; preds = %16
  %22 = load i32, ptr %4, align 4
  %23 = icmp sgt i32 %22, 0
  br i1 %23, label %24, label %38

24:                                               ; preds = %21
  %25 = getelementptr inbounds %class.Unpack, ptr %6, i32 0, i32 1
  %26 = getelementptr inbounds %class.BitInput, ptr %25, i32 0, i32 3
  %27 = load ptr, ptr %26, align 8
  %28 = getelementptr inbounds %class.Unpack, ptr %6, i32 0, i32 1
  %29 = getelementptr inbounds %class.BitInput, ptr %28, i32 0, i32 3
  %30 = load ptr, ptr %29, align 8
  %31 = getelementptr inbounds %class.Unpack, ptr %6, i32 0, i32 1
  %32 = getelementptr inbounds %class.BitInput, ptr %31, i32 0, i32 0
  %33 = load i32, ptr %32, align 8
  %34 = sext i32 %33 to i64
  %35 = getelementptr inbounds i8, ptr %30, i64 %34
  %36 = load i32, ptr %4, align 4
  %37 = sext i32 %36 to i64
  call void @llvm.memmove.p0.p0.i64(ptr align 1 %27, ptr align 1 %35, i64 %37, i1 false)
  br label %38

38:                                               ; preds = %24, %21
  %39 = getelementptr inbounds %class.Unpack, ptr %6, i32 0, i32 1
  %40 = getelementptr inbounds %class.BitInput, ptr %39, i32 0, i32 0
  store i32 0, ptr %40, align 8
  %41 = load i32, ptr %4, align 4
  %42 = getelementptr inbounds %class.Unpack, ptr %6, i32 0, i32 11
  store i32 %41, ptr %42, align 8
  br label %46

43:                                               ; preds = %16
  %44 = getelementptr inbounds %class.Unpack, ptr %6, i32 0, i32 11
  %45 = load i32, ptr %44, align 8
  store i32 %45, ptr %4, align 4
  br label %46

46:                                               ; preds = %43, %38
  %47 = getelementptr inbounds %class.Unpack, ptr %6, i32 0, i32 0
  %48 = load ptr, ptr %47, align 8
  %49 = getelementptr inbounds %class.Unpack, ptr %6, i32 0, i32 1
  %50 = getelementptr inbounds %class.BitInput, ptr %49, i32 0, i32 3
  %51 = load ptr, ptr %50, align 8
  %52 = load i32, ptr %4, align 4
  %53 = sext i32 %52 to i64
  %54 = getelementptr inbounds i8, ptr %51, i64 %53
  %55 = load i32, ptr %4, align 4
  %56 = sub nsw i32 32768, %55
  %57 = sext i32 %56 to i64
  %58 = call noundef i32 @_ZN11ComprDataIO7UnpReadEPhm(ptr noundef nonnull align 8 dereferenceable(266) %48, ptr noundef %54, i64 noundef %57)
  store i32 %58, ptr %5, align 4
  %59 = load i32, ptr %5, align 4
  %60 = icmp sgt i32 %59, 0
  br i1 %60, label %61, label %66

61:                                               ; preds = %46
  %62 = load i32, ptr %5, align 4
  %63 = getelementptr inbounds %class.Unpack, ptr %6, i32 0, i32 11
  %64 = load i32, ptr %63, align 8
  %65 = add nsw i32 %64, %62
  store i32 %65, ptr %63, align 8
  br label %66

66:                                               ; preds = %61, %46
  %67 = getelementptr inbounds %class.Unpack, ptr %6, i32 0, i32 11
  %68 = load i32, ptr %67, align 8
  %69 = sub nsw i32 %68, 30
  %70 = getelementptr inbounds %class.Unpack, ptr %6, i32 0, i32 12
  store i32 %69, ptr %70, align 4
  %71 = load i32, ptr %5, align 4
  %72 = icmp ne i32 %71, -1
  store i1 %72, ptr %2, align 1
  br label %73

73:                                               ; preds = %66, %15
  %74 = load i1, ptr %2, align 1
  ret i1 %74
}