; Function Attrs: mustprogress uwtable
define noundef zeroext i1 @_ZN6Unpack12UnpReadBuf30Ev(ptr nocapture noundef nonnull align 8 dereferenceable(59688) %0) local_unnamed_addr #0 align 2 {
  %2 = getelementptr inbounds i8, ptr %0, i64 176
  %3 = load i32, ptr %2, align 8
  %4 = getelementptr inbounds i8, ptr %0, i64 8
  %5 = load i32, ptr %4, align 8
  %6 = sub nsw i32 %3, %5
  %7 = icmp slt i32 %6, 0
  br i1 %7, label %35, label %8

8:                                                ; preds = %1
  %9 = icmp sgt i32 %5, 16384
  br i1 %9, label %10, label %18

10:                                               ; preds = %8
  %.not = icmp eq i32 %6, 0
  br i1 %.not, label %17, label %11

11:                                               ; preds = %10
  %12 = getelementptr inbounds i8, ptr %0, i64 24
  %13 = load ptr, ptr %12, align 8
  %14 = zext nneg i32 %5 to i64
  %15 = getelementptr inbounds i8, ptr %13, i64 %14
  %16 = zext nneg i32 %6 to i64
  tail call void @llvm.memmove.p0.p0.i64(ptr align 1 %13, ptr nonnull align 1 %15, i64 %16, i1 false)
  br label %17

17:                                               ; preds = %11, %10
  store i32 0, ptr %4, align 8
  store i32 %6, ptr %2, align 8
  br label %18

18:                                               ; preds = %8, %17
  %.010 = phi i32 [ %6, %17 ], [ %3, %8 ]
  %19 = load ptr, ptr %0, align 8
  %20 = getelementptr inbounds i8, ptr %0, i64 24
  %21 = load ptr, ptr %20, align 8
  %22 = sext i32 %.010 to i64
  %23 = getelementptr inbounds i8, ptr %21, i64 %22
  %24 = sub nsw i32 32768, %.010
  %25 = sext i32 %24 to i64
  %26 = tail call noundef i32 @_ZN11ComprDataIO7UnpReadEPhm(ptr noundef nonnull align 8 dereferenceable(266) %19, ptr noundef %23, i64 noundef %25)
  %27 = icmp sgt i32 %26, 0
  %.pre = load i32, ptr %2, align 8
  br i1 %27, label %28, label %30

28:                                               ; preds = %18
  %29 = add nsw i32 %.pre, %26
  store i32 %29, ptr %2, align 8
  br label %30

30:                                               ; preds = %28, %18
  %31 = phi i32 [ %29, %28 ], [ %.pre, %18 ]
  %32 = add nsw i32 %31, -30
  %33 = getelementptr inbounds i8, ptr %0, i64 180
  store i32 %32, ptr %33, align 4
  %34 = icmp ne i32 %26, -1
  br label %35

35:                                               ; preds = %1, %30
  %.0 = phi i1 [ %34, %30 ], [ false, %1 ]
  ret i1 %.0
}